target datalayout = "e-m:e-p270:32:32-p271:32:32-p272:64:64-i64:64-i128:128-f80:128-n8:16:32:64-S128"
target triple = "x86_64-pc-linux-gnu"

%"class.llvm::ArrayRef.298" = type { ptr, i64 }
%"struct.__gnu_cxx::__ops::_Iter_pred" = type { ptr }
%"struct.__gnu_cxx::__ops::_Iter_negate" = type { ptr }

; Function Attrs: mustprogress nounwind uwtable
define linkonce_odr hidden noundef zeroext i1 @_ZN9__gnu_cxx5__ops12_Iter_negateIPFbPKN4llvm5ValueEEEclIPKS5_EEbT_(ptr noundef nonnull align 8 dereferenceable(8) %0, ptr noundef %1) #1 comdat align 2 {
  %3 = alloca ptr, align 8
  %4 = alloca ptr, align 8
  store ptr %0, ptr %3, align 8
  store ptr %1, ptr %4, align 8
  %5 = load ptr, ptr %3, align 8
  %6 = getelementptr inbounds nuw %"struct.__gnu_cxx::__ops::_Iter_negate", ptr %5, i32 0, i32 0
  %7 = load ptr, ptr %6, align 8
  %8 = load ptr, ptr %4, align 8
  %9 = load ptr, ptr %8, align 8
  %10 = call noundef zeroext i1 %7(ptr noundef %9)
  %11 = xor i1 %10, true
  ret i1 %11
}

; Function Attrs: mustprogress nounwind uwtable
define linkonce_odr hidden void @_ZN9__gnu_cxx5__ops12_Iter_negateIPFbPKN4llvm5ValueEEEC2ES7_(ptr noundef nonnull align 8 dereferenceable(8) %0, ptr noundef %1) unnamed_addr #1 comdat align 2 {
  %3 = alloca ptr, align 8
  %4 = alloca ptr, align 8
  store ptr %0, ptr %3, align 8
  store ptr %1, ptr %4, align 8
  %5 = load ptr, ptr %3, align 8
  %6 = getelementptr inbounds nuw %"struct.__gnu_cxx::__ops::_Iter_negate", ptr %5, i32 0, i32 0
  %7 = load ptr, ptr %4, align 8
  store ptr %7, ptr %6, align 8
  ret void
}

; Function Attrs: mustprogress nounwind uwtable
define linkonce_odr noundef ptr @_ZSt9__find_ifIPKPKN4llvm5ValueEN9__gnu_cxx5__ops12_Iter_negateIPFbS3_EEEET_SC_SC_T0_St26random_access_iterator_tag(ptr noundef %0, ptr noundef %1, ptr %2) #1 comdat {
  %4 = alloca ptr, align 8
  %5 = alloca %"struct.__gnu_cxx::__ops::_Iter_negate", align 8
  %6 = alloca ptr, align 8
  %7 = alloca ptr, align 8
  %8 = alloca i64, align 8
  %9 = getelementptr inbounds nuw %"struct.__gnu_cxx::__ops::_Iter_negate", ptr %5, i32 0, i32 0
  store ptr %2, ptr %9, align 8
  store ptr %0, ptr %6, align 8
  store ptr %1, ptr %7, align 8
  %10 = load ptr, ptr %7, align 8
  %11 = load ptr, ptr %6, align 8
  %12 = ptrtoint ptr %10 to i64
  %13 = ptrtoint ptr %11 to i64
  %14 = sub i64 %12, %13
  %15 = sdiv exact i64 %14, 8
  %16 = ashr i64 %15, 2
  store i64 %16, ptr %8, align 8
  br label %17

17:                                               ; preds = %49, %3
  %18 = load i64, ptr %8, align 8
  %19 = icmp sgt i64 %18, 0
  br i1 %19, label %20, label %52

20:                                               ; preds = %17
  %21 = load ptr, ptr %6, align 8
  %22 = call noundef zeroext i1 @_ZN9__gnu_cxx5__ops12_Iter_negateIPFbPKN4llvm5ValueEEEclIPKS5_EEbT_(ptr noundef nonnull align 8 dereferenceable(8) %5, ptr noundef %21)
  br i1 %22, label %23, label %25

23:                                               ; preds = %20
  %24 = load ptr, ptr %6, align 8
  store ptr %24, ptr %4, align 8
  br label %86

25:                                               ; preds = %20
  %26 = load ptr, ptr %6, align 8
  %27 = getelementptr inbounds ptr, ptr %26, i32 1
  store ptr %27, ptr %6, align 8
  %28 = load ptr, ptr %6, align 8
  %29 = call noundef zeroext i1 @_ZN9__gnu_cxx5__ops12_Iter_negateIPFbPKN4llvm5ValueEEEclIPKS5_EEbT_(ptr noundef nonnull align 8 dereferenceable(8) %5, ptr noundef %28)
  br i1 %29, label %30, label %32

30:                                               ; preds = %25
  %31 = load ptr, ptr %6, align 8
  store ptr %31, ptr %4, align 8
  br label %86

32:                                               ; preds = %25
  %33 = load ptr, ptr %6, align 8
  %34 = getelementptr inbounds ptr, ptr %33, i32 1
  store ptr %34, ptr %6, align 8
  %35 = load ptr, ptr %6, align 8
  %36 = call noundef zeroext i1 @_ZN9__gnu_cxx5__ops12_Iter_negateIPFbPKN4llvm5ValueEEEclIPKS5_EEbT_(ptr noundef nonnull align 8 dereferenceable(8) %5, ptr noundef %35)
  br i1 %36, label %37, label %39

37:                                               ; preds = %32
  %38 = load ptr, ptr %6, align 8
  store ptr %38, ptr %4, align 8
  br label %86

39:                                               ; preds = %32
  %40 = load ptr, ptr %6, align 8
  %41 = getelementptr inbounds ptr, ptr %40, i32 1
  store ptr %41, ptr %6, align 8
  %42 = load ptr, ptr %6, align 8
  %43 = call noundef zeroext i1 @_ZN9__gnu_cxx5__ops12_Iter_negateIPFbPKN4llvm5ValueEEEclIPKS5_EEbT_(ptr noundef nonnull align 8 dereferenceable(8) %5, ptr noundef %42)
  br i1 %43, label %44, label %46

44:                                               ; preds = %39
  %45 = load ptr, ptr %6, align 8
  store ptr %45, ptr %4, align 8
  br label %86

46:                                               ; preds = %39
  %47 = load ptr, ptr %6, align 8
  %48 = getelementptr inbounds ptr, ptr %47, i32 1
  store ptr %48, ptr %6, align 8
  br label %49

49:                                               ; preds = %46
  %50 = load i64, ptr %8, align 8
  %51 = add nsw i64 %50, -1
  store i64 %51, ptr %8, align 8
  br label %17, !llvm.loop !27

52:                                               ; preds = %17
  %53 = load ptr, ptr %7, align 8
  %54 = load ptr, ptr %6, align 8
  %55 = ptrtoint ptr %53 to i64
  %56 = ptrtoint ptr %54 to i64
  %57 = sub i64 %55, %56
  %58 = sdiv exact i64 %57, 8
  switch i64 %58, label %84 [
    i64 3, label %59
    i64 2, label %67
    i64 1, label %75
    i64 0, label %83
  ]

59:                                               ; preds = %52
  %60 = load ptr, ptr %6, align 8
  %61 = call noundef zeroext i1 @_ZN9__gnu_cxx5__ops12_Iter_negateIPFbPKN4llvm5ValueEEEclIPKS5_EEbT_(ptr noundef nonnull align 8 dereferenceable(8) %5, ptr noundef %60)
  br i1 %61, label %62, label %64

62:                                               ; preds = %59
  %63 = load ptr, ptr %6, align 8
  store ptr %63, ptr %4, align 8
  br label %86

64:                                               ; preds = %59
  %65 = load ptr, ptr %6, align 8
  %66 = getelementptr inbounds ptr, ptr %65, i32 1
  store ptr %66, ptr %6, align 8
  br label %67

67:                                               ; preds = %64, %52
  %68 = load ptr, ptr %6, align 8
  %69 = call noundef zeroext i1 @_ZN9__gnu_cxx5__ops12_Iter_negateIPFbPKN4llvm5ValueEEEclIPKS5_EEbT_(ptr noundef nonnull align 8 dereferenceable(8) %5, ptr noundef %68)
  br i1 %69, label %70, label %72

70:                                               ; preds = %67
  %71 = load ptr, ptr %6, align 8
  store ptr %71, ptr %4, align 8
  br label %86

72:                                               ; preds = %67
  %73 = load ptr, ptr %6, align 8
  %74 = getelementptr inbounds ptr, ptr %73, i32 1
  store ptr %74, ptr %6, align 8
  br label %75

75:                                               ; preds = %72, %52
  %76 = load ptr, ptr %6, align 8
  %77 = call noundef zeroext i1 @_ZN9__gnu_cxx5__ops12_Iter_negateIPFbPKN4llvm5ValueEEEclIPKS5_EEbT_(ptr noundef nonnull align 8 dereferenceable(8) %5, ptr noundef %76)
  br i1 %77, label %78, label %80

78:                                               ; preds = %75
  %79 = load ptr, ptr %6, align 8
  store ptr %79, ptr %4, align 8
  br label %86

80:                                               ; preds = %75
  %81 = load ptr, ptr %6, align 8
  %82 = getelementptr inbounds ptr, ptr %81, i32 1
  store ptr %82, ptr %6, align 8
  br label %83

83:                                               ; preds = %80, %52
  br label %84

84:                                               ; preds = %83, %52
  %85 = load ptr, ptr %7, align 8
  store ptr %85, ptr %4, align 8
  br label %86

86:                                               ; preds = %84, %78, %70, %62, %44, %37, %30, %23
  %87 = load ptr, ptr %4, align 8
  ret ptr %87
}

; Function Attrs: mustprogress nounwind uwtable
define linkonce_odr void @_ZSt19__iterator_categoryIPKPKN4llvm5ValueEENSt15iterator_traitsIT_E17iterator_categoryERKS7_(ptr noundef nonnull align 8 dereferenceable(8) %0) #1 comdat {
  %2 = alloca ptr, align 8
  store ptr %0, ptr %2, align 8
  ret void
}

; Function Attrs: mustprogress nounwind uwtable
define linkonce_odr hidden ptr @_ZN9__gnu_cxx5__ops8__negateIPFbPKN4llvm5ValueEEEENS0_12_Iter_negateIT_EENS0_10_Iter_predIS9_EE(ptr %0) #1 comdat {
  %2 = alloca %"struct.__gnu_cxx::__ops::_Iter_negate", align 8
  %3 = alloca %"struct.__gnu_cxx::__ops::_Iter_pred", align 8
  %4 = getelementptr inbounds nuw %"struct.__gnu_cxx::__ops::_Iter_pred", ptr %3, i32 0, i32 0
  store ptr %0, ptr %4, align 8
  %5 = getelementptr inbounds nuw %"struct.__gnu_cxx::__ops::_Iter_pred", ptr %3, i32 0, i32 0
  %6 = load ptr, ptr %5, align 8
  call void @_ZN9__gnu_cxx5__ops12_Iter_negateIPFbPKN4llvm5ValueEEEC2ES7_(ptr noundef nonnull align 8 dereferenceable(8) %2, ptr noundef %6)
  %7 = getelementptr inbounds nuw %"struct.__gnu_cxx::__ops::_Iter_negate", ptr %2, i32 0, i32 0
  %8 = load ptr, ptr %7, align 8
  ret ptr %8
}

; Function Attrs: mustprogress nounwind uwtable
define linkonce_odr hidden void @_ZN9__gnu_cxx5__ops10_Iter_predIPFbPKN4llvm5ValueEEEC2ES7_(ptr noundef nonnull align 8 dereferenceable(8) %0, ptr noundef %1) unnamed_addr #1 comdat align 2 {
  %3 = alloca ptr, align 8
  %4 = alloca ptr, align 8
  store ptr %0, ptr %3, align 8
  store ptr %1, ptr %4, align 8
  %5 = load ptr, ptr %3, align 8
  %6 = getelementptr inbounds nuw %"struct.__gnu_cxx::__ops::_Iter_pred", ptr %5, i32 0, i32 0
  %7 = load ptr, ptr %4, align 8
  store ptr %7, ptr %6, align 8
  ret void
}

; Function Attrs: mustprogress nounwind uwtable
define linkonce_odr hidden noundef ptr @_ZNK4llvm8ArrayRefIPKNS_5ValueEE3endEv(ptr noundef nonnull align 8 dereferenceable(16) %0) #1 comdat align 2 {
  %2 = alloca ptr, align 8
  store ptr %0, ptr %2, align 8
  %3 = load ptr, ptr %2, align 8
  %4 = getelementptr inbounds nuw %"class.llvm::ArrayRef.298", ptr %3, i32 0, i32 0
  %5 = load ptr, ptr %4, align 8
  %6 = getelementptr inbounds nuw %"class.llvm::ArrayRef.298", ptr %3, i32 0, i32 1
  %7 = load i64, ptr %6, align 8
  %8 = getelementptr inbounds ptr, ptr %5, i64 %7
  ret ptr %8
}

; Function Attrs: mustprogress nounwind uwtable
define linkonce_odr hidden noundef ptr @_ZNK4llvm8ArrayRefIPKNS_5ValueEE5beginEv(ptr noundef nonnull align 8 dereferenceable(16) %0) #1 comdat align 2 {
  %2 = alloca ptr, align 8
  store ptr %0, ptr %2, align 8
  %3 = load ptr, ptr %2, align 8
  %4 = getelementptr inbounds nuw %"class.llvm::ArrayRef.298", ptr %3, i32 0, i32 0
  %5 = load ptr, ptr %4, align 8
  ret ptr %5
}

; Function Attrs: mustprogress nounwind uwtable
define linkonce_odr noundef ptr @_ZSt13__find_if_notIPKPKN4llvm5ValueEN9__gnu_cxx5__ops10_Iter_predIPFbS3_EEEET_SC_SC_T0_(ptr noundef %0, ptr noundef %1, ptr %2) #1 comdat {
  %4 = alloca %"struct.__gnu_cxx::__ops::_Iter_pred", align 8
  %5 = alloca ptr, align 8
  %6 = alloca ptr, align 8
  %7 = alloca %"struct.__gnu_cxx::__ops::_Iter_negate", align 8
  %8 = alloca %"struct.__gnu_cxx::__ops::_Iter_pred", align 8
  %9 = getelementptr inbounds nuw %"struct.__gnu_cxx::__ops::_Iter_pred", ptr %4, i32 0, i32 0
  store ptr %2, ptr %9, align 8
  store ptr %0, ptr %5, align 8
  store ptr %1, ptr %6, align 8
  %10 = load ptr, ptr %5, align 8
  %11 = load ptr, ptr %6, align 8
  call void @llvm.memcpy.p0.p0.i64(ptr align 8 %8, ptr align 8 %4, i64 8, i1 false)
  %12 = getelementptr inbounds nuw %"struct.__gnu_cxx::__ops::_Iter_pred", ptr %8, i32 0, i32 0
  %13 = load ptr, ptr %12, align 8
  %14 = call ptr @_ZN9__gnu_cxx5__ops8__negateIPFbPKN4llvm5ValueEEEENS0_12_Iter_negateIT_EENS0_10_Iter_predIS9_EE(ptr %13)
  %15 = getelementptr inbounds nuw %"struct.__gnu_cxx::__ops::_Iter_negate", ptr %7, i32 0, i32 0
  store ptr %14, ptr %15, align 8
  call void @_ZSt19__iterator_categoryIPKPKN4llvm5ValueEENSt15iterator_traitsIT_E17iterator_categoryERKS7_(ptr noundef nonnull align 8 dereferenceable(8) %5)
  %16 = getelementptr inbounds nuw %"struct.__gnu_cxx::__ops::_Iter_negate", ptr %7, i32 0, i32 0
  %17 = load ptr, ptr %16, align 8
  %18 = call noundef ptr @_ZSt9__find_ifIPKPKN4llvm5ValueEN9__gnu_cxx5__ops12_Iter_negateIPFbS3_EEEET_SC_SC_T0_St26random_access_iterator_tag(ptr noundef %10, ptr noundef %11, ptr %17)
  ret ptr %18
}

; Function Attrs: mustprogress nounwind uwtable
define linkonce_odr hidden ptr @_ZN9__gnu_cxx5__ops11__pred_iterIPFbPKN4llvm5ValueEEEENS0_10_Iter_predIT_EES9_(ptr noundef %0) #1 comdat {
  %2 = alloca %"struct.__gnu_cxx::__ops::_Iter_pred", align 8
  %3 = alloca ptr, align 8
  store ptr %0, ptr %3, align 8
  %4 = load ptr, ptr %3, align 8
  call void @_ZN9__gnu_cxx5__ops10_Iter_predIPFbPKN4llvm5ValueEEEC2ES7_(ptr noundef nonnull align 8 dereferenceable(8) %2, ptr noundef %4)
  %5 = getelementptr inbounds nuw %"struct.__gnu_cxx::__ops::_Iter_pred", ptr %2, i32 0, i32 0
  %6 = load ptr, ptr %5, align 8
  ret ptr %6
}

; Function Attrs: mustprogress nounwind uwtable
define linkonce_odr noundef ptr @_ZSt3endIN4llvm8ArrayRefIPKNS0_5ValueEEEEDTcldtfp_3endEERT_(ptr noundef nonnull align 8 dereferenceable(16) %0) #1 comdat {
  %2 = alloca ptr, align 8
  store ptr %0, ptr %2, align 8
  %3 = load ptr, ptr %2, align 8
  %4 = call noundef ptr @_ZNK4llvm8ArrayRefIPKNS_5ValueEE3endEv(ptr noundef nonnull align 8 dereferenceable(16) %3)
  ret ptr %4
}

; Function Attrs: mustprogress nounwind uwtable
define linkonce_odr noundef ptr @_ZSt5beginIN4llvm8ArrayRefIPKNS0_5ValueEEEEDTcldtfp_5beginEERT_(ptr noundef nonnull align 8 dereferenceable(16) %0) #1 comdat {
  %2 = alloca ptr, align 8
  store ptr %0, ptr %2, align 8
  %3 = load ptr, ptr %2, align 8
  %4 = call noundef ptr @_ZNK4llvm8ArrayRefIPKNS_5ValueEE5beginEv(ptr noundef nonnull align 8 dereferenceable(16) %3)
  ret ptr %4
}

; Function Attrs: mustprogress nounwind uwtable
define linkonce_odr noundef ptr @_ZSt11find_if_notIPKPKN4llvm5ValueEPFbS3_EET_S8_S8_T0_(ptr noundef %0, ptr noundef %1, ptr noundef %2) #1 comdat {
  %4 = alloca ptr, align 8
  %5 = alloca ptr, align 8
  %6 = alloca ptr, align 8
  %7 = alloca %"struct.__gnu_cxx::__ops::_Iter_pred", align 8
  store ptr %0, ptr %4, align 8
  store ptr %1, ptr %5, align 8
  store ptr %2, ptr %6, align 8
  %8 = load ptr, ptr %4, align 8
  %9 = load ptr, ptr %5, align 8
  %10 = load ptr, ptr %6, align 8
  %11 = call ptr @_ZN9__gnu_cxx5__ops11__pred_iterIPFbPKN4llvm5ValueEEEENS0_10_Iter_predIT_EES9_(ptr noundef %10)
  %12 = getelementptr inbounds nuw %"struct.__gnu_cxx::__ops::_Iter_pred", ptr %7, i32 0, i32 0
  store ptr %11, ptr %12, align 8
  %13 = getelementptr inbounds nuw %"struct.__gnu_cxx::__ops::_Iter_pred", ptr %7, i32 0, i32 0
  %14 = load ptr, ptr %13, align 8
  %15 = call noundef ptr @_ZSt13__find_if_notIPKPKN4llvm5ValueEN9__gnu_cxx5__ops10_Iter_predIPFbS3_EEEET_SC_SC_T0_(ptr noundef %8, ptr noundef %9, ptr %14)
  ret ptr %15
}

; Function Attrs: mustprogress nounwind uwtable
define linkonce_odr hidden noundef ptr @_ZN4llvm10adl_detail8end_implIRNS_8ArrayRefIPKNS_5ValueEEEEEDTcl3endclsr3stdE7forwardIT_Efp_EEEOS8_(ptr noundef nonnull align 8 dereferenceable(16) %0) #1 comdat {
  %2 = alloca ptr, align 8
  store ptr %0, ptr %2, align 8
  %3 = load ptr, ptr %2, align 8
  %4 = call noundef ptr @_ZSt3endIN4llvm8ArrayRefIPKNS0_5ValueEEEEDTcldtfp_3endEERT_(ptr noundef nonnull align 8 dereferenceable(16) %3)
  ret ptr %4
}

; Function Attrs: mustprogress nounwind uwtable
define linkonce_odr hidden noundef ptr @_ZN4llvm10adl_detail10begin_implIRNS_8ArrayRefIPKNS_5ValueEEEEEDTcl5beginclsr3stdE7forwardIT_Efp_EEEOS8_(ptr noundef nonnull align 8 dereferenceable(16) %0) #1 comdat {
  %2 = alloca ptr, align 8
  store ptr %0, ptr %2, align 8
  %3 = load ptr, ptr %2, align 8
  %4 = call noundef ptr @_ZSt5beginIN4llvm8ArrayRefIPKNS0_5ValueEEEEDTcldtfp_5beginEERT_(ptr noundef nonnull align 8 dereferenceable(16) %3)
  ret ptr %4
}

; Function Attrs: mustprogress nounwind uwtable
define linkonce_odr noundef zeroext i1 @_ZSt6all_ofIPKPKN4llvm5ValueEPFbS3_EEbT_S8_T0_(ptr noundef %0, ptr noundef %1, ptr noundef %2) #1 comdat {
  %4 = alloca ptr, align 8
  %5 = alloca ptr, align 8
  %6 = alloca ptr, align 8
  store ptr %0, ptr %4, align 8
  store ptr %1, ptr %5, align 8
  store ptr %2, ptr %6, align 8
  %7 = load ptr, ptr %5, align 8
  %8 = load ptr, ptr %4, align 8
  %9 = load ptr, ptr %5, align 8
  %10 = load ptr, ptr %6, align 8
  %11 = call noundef ptr @_ZSt11find_if_notIPKPKN4llvm5ValueEPFbS3_EET_S8_S8_T0_(ptr noundef %8, ptr noundef %9, ptr noundef %10)
  %12 = icmp eq ptr %7, %11
  ret i1 %12
}

; Function Attrs: mustprogress nounwind uwtable
define linkonce_odr hidden noundef ptr @_ZN4llvm7adl_endIRNS_8ArrayRefIPKNS_5ValueEEEEEDTclsr10adl_detailE8end_implclsr3stdE7forwardIT_Efp_EEEOS7_(ptr noundef nonnull align 8 dereferenceable(16) %0) #1 comdat {
  %2 = alloca ptr, align 8
  store ptr %0, ptr %2, align 8
  %3 = load ptr, ptr %2, align 8
  %4 = call noundef ptr @_ZN4llvm10adl_detail8end_implIRNS_8ArrayRefIPKNS_5ValueEEEEEDTcl3endclsr3stdE7forwardIT_Efp_EEEOS8_(ptr noundef nonnull align 8 dereferenceable(16) %3)
  ret ptr %4
}

; Function Attrs: mustprogress nounwind uwtable
define linkonce_odr hidden noundef ptr @_ZN4llvm9adl_beginIRNS_8ArrayRefIPKNS_5ValueEEEEEDTclsr10adl_detailE10begin_implclsr3stdE7forwardIT_Efp_EEEOS7_(ptr noundef nonnull align 8 dereferenceable(16) %0) #1 comdat {
  %2 = alloca ptr, align 8
  store ptr %0, ptr %2, align 8
  %3 = load ptr, ptr %2, align 8
  %4 = call noundef ptr @_ZN4llvm10adl_detail10begin_implIRNS_8ArrayRefIPKNS_5ValueEEEEEDTcl5beginclsr3stdE7forwardIT_Efp_EEEOS8_(ptr noundef nonnull align 8 dereferenceable(16) %3)
  ret ptr %4
}

; Function Attrs: mustprogress nounwind uwtable
define linkonce_odr noundef zeroext i1 @_ZN4llvm6all_ofIRNS_8ArrayRefIPKNS_5ValueEEEPFbS4_EEEbOT_T0_(ptr noundef nonnull align 8 dereferenceable(16) %0, ptr noundef %1) #1 comdat {
  %3 = alloca ptr, align 8
  %4 = alloca ptr, align 8
  store ptr %0, ptr %3, align 8
  store ptr %1, ptr %4, align 8
  %5 = load ptr, ptr %3, align 8
  %6 = call noundef ptr @_ZN4llvm9adl_beginIRNS_8ArrayRefIPKNS_5ValueEEEEEDTclsr10adl_detailE10begin_implclsr3stdE7forwardIT_Efp_EEEOS7_(ptr noundef nonnull align 8 dereferenceable(16) %5)
  %7 = load ptr, ptr %3, align 8
  %8 = call noundef ptr @_ZN4llvm7adl_endIRNS_8ArrayRefIPKNS_5ValueEEEEEDTclsr10adl_detailE8end_implclsr3stdE7forwardIT_Efp_EEEOS7_(ptr noundef nonnull align 8 dereferenceable(16) %7)
  %9 = load ptr, ptr %4, align 8
  %10 = call noundef zeroext i1 @_ZSt6all_ofIPKPKN4llvm5ValueEPFbS3_EEbT_S8_T0_(ptr noundef %6, ptr noundef %8, ptr noundef %9)
  ret i1 %10
}

; Function Attrs: mustprogress nounwind uwtable
define internal noundef zeroext i1 @"_ZZL18computePointerICmpN4llvm7CmpInst9PredicateEPNS_5ValueES3_RKNS_13SimplifyQueryEENK3$_1clENS_8ArrayRefIPKS2_EE"(ptr noundef nonnull align 1 dereferenceable(1) %0, ptr %1, i64 %2) #1 align 2 {
  %4 = alloca %"class.llvm::ArrayRef.298", align 8
  %5 = alloca ptr, align 8
  %6 = getelementptr inbounds nuw { ptr, i64 }, ptr %4, i32 0, i32 0
  store ptr %1, ptr %6, align 8
  %7 = getelementptr inbounds nuw { ptr, i64 }, ptr %4, i32 0, i32 1
  store i64 %2, ptr %7, align 8
  store ptr %0, ptr %5, align 8
  %8 = call noundef zeroext i1 @_ZN4llvm6all_ofIRNS_8ArrayRefIPKNS_5ValueEEEPFbS4_EEEbOT_T0_(ptr noundef nonnull align 8 dereferenceable(16) %4, ptr noundef @_ZN4llvm13isNoAliasCallEPKNS_5ValueE)
  ret i1 %8
}