; Function Attrs: mustprogress nounwind uwtable
define internal fastcc noundef zeroext i1 @"_ZZL18computePointerICmpN4llvm7CmpInst9PredicateEPNS_5ValueES3_RKNS_13SimplifyQueryEENK3$_1clENS_8ArrayRefIPKS2_EE"(ptr %0, i64 %1) unnamed_addr #0 align 2 {
  %3 = getelementptr inbounds ptr, ptr %0, i64 %1
  %4 = ptrtoint ptr %3 to i64
  %5 = ashr i64 %1, 2
  %6 = icmp sgt i64 %5, 0
  br i1 %6, label %.lr.ph.i.i.i.i.i, label %._crit_edge.i.i.i.i.i

.lr.ph.i.i.i.i.i:                                 ; preds = %2, %21
  %.047.i.i.i.i.i = phi i64 [ %23, %21 ], [ %5, %2 ]
  %.02946.i.i.i.i.i = phi ptr [ %22, %21 ], [ %0, %2 ]
  %7 = load ptr, ptr %.02946.i.i.i.i.i, align 8
  %8 = tail call noundef zeroext i1 @_ZN4llvm13isNoAliasCallEPKNS_5ValueE(ptr noundef %7) #18
  br i1 %8, label %9, label %_ZN4llvm6all_ofIRNS_8ArrayRefIPKNS_5ValueEEEPFbS4_EEEbOT_T0_.exit

9:                                                ; preds = %.lr.ph.i.i.i.i.i
  %10 = getelementptr inbounds i8, ptr %.02946.i.i.i.i.i, i64 8
  %11 = load ptr, ptr %10, align 8
  %12 = tail call noundef zeroext i1 @_ZN4llvm13isNoAliasCallEPKNS_5ValueE(ptr noundef %11) #18
  br i1 %12, label %13, label %_ZN4llvm6all_ofIRNS_8ArrayRefIPKNS_5ValueEEEPFbS4_EEEbOT_T0_.exit.loopexit.split.loop.exit

13:                                               ; preds = %9
  %14 = getelementptr inbounds i8, ptr %.02946.i.i.i.i.i, i64 16
  %15 = load ptr, ptr %14, align 8
  %16 = tail call noundef zeroext i1 @_ZN4llvm13isNoAliasCallEPKNS_5ValueE(ptr noundef %15) #18
  br i1 %16, label %17, label %_ZN4llvm6all_ofIRNS_8ArrayRefIPKNS_5ValueEEEPFbS4_EEEbOT_T0_.exit.loopexit.split.loop.exit13

17:                                               ; preds = %13
  %18 = getelementptr inbounds i8, ptr %.02946.i.i.i.i.i, i64 24
  %19 = load ptr, ptr %18, align 8
  %20 = tail call noundef zeroext i1 @_ZN4llvm13isNoAliasCallEPKNS_5ValueE(ptr noundef %19) #18
  br i1 %20, label %21, label %_ZN4llvm6all_ofIRNS_8ArrayRefIPKNS_5ValueEEEPFbS4_EEEbOT_T0_.exit.loopexit.split.loop.exit15

21:                                               ; preds = %17
  %22 = getelementptr inbounds i8, ptr %.02946.i.i.i.i.i, i64 32
  %23 = add nsw i64 %.047.i.i.i.i.i, -1
  %24 = icmp sgt i64 %.047.i.i.i.i.i, 1
  br i1 %24, label %.lr.ph.i.i.i.i.i, label %._crit_edge.loopexit.i.i.i.i.i, !llvm.loop !384

._crit_edge.loopexit.i.i.i.i.i:                   ; preds = %21
  %.pre.i.i.i.i.i = ptrtoint ptr %22 to i64
  %.pre52.i.i.i.i.i = sub i64 %4, %.pre.i.i.i.i.i
  %25 = ashr exact i64 %.pre52.i.i.i.i.i, 3
  br label %._crit_edge.i.i.i.i.i

._crit_edge.i.i.i.i.i:                            ; preds = %._crit_edge.loopexit.i.i.i.i.i, %2
  %.pre-phi53.i.i.i.i.i = phi i64 [ %25, %._crit_edge.loopexit.i.i.i.i.i ], [ %1, %2 ]
  %.029.lcssa.i.i.i.i.i = phi ptr [ %22, %._crit_edge.loopexit.i.i.i.i.i ], [ %0, %2 ]
  switch i64 %.pre-phi53.i.i.i.i.i, label %39 [
    i64 3, label %26
    i64 2, label %31
    i64 1, label %36
  ]

26:                                               ; preds = %._crit_edge.i.i.i.i.i
  %27 = load ptr, ptr %.029.lcssa.i.i.i.i.i, align 8
  %28 = tail call noundef zeroext i1 @_ZN4llvm13isNoAliasCallEPKNS_5ValueE(ptr noundef %27) #18
  br i1 %28, label %29, label %_ZN4llvm6all_ofIRNS_8ArrayRefIPKNS_5ValueEEEPFbS4_EEEbOT_T0_.exit

29:                                               ; preds = %26
  %30 = getelementptr inbounds i8, ptr %.029.lcssa.i.i.i.i.i, i64 8
  br label %31

31:                                               ; preds = %29, %._crit_edge.i.i.i.i.i
  %.1.i.i.i.i.i = phi ptr [ %.029.lcssa.i.i.i.i.i, %._crit_edge.i.i.i.i.i ], [ %30, %29 ]
  %32 = load ptr, ptr %.1.i.i.i.i.i, align 8
  %33 = tail call noundef zeroext i1 @_ZN4llvm13isNoAliasCallEPKNS_5ValueE(ptr noundef %32) #18
  br i1 %33, label %34, label %_ZN4llvm6all_ofIRNS_8ArrayRefIPKNS_5ValueEEEPFbS4_EEEbOT_T0_.exit

34:                                               ; preds = %31
  %35 = getelementptr inbounds i8, ptr %.1.i.i.i.i.i, i64 8
  br label %36

36:                                               ; preds = %34, %._crit_edge.i.i.i.i.i
  %.2.i.i.i.i.i = phi ptr [ %.029.lcssa.i.i.i.i.i, %._crit_edge.i.i.i.i.i ], [ %35, %34 ]
  %37 = load ptr, ptr %.2.i.i.i.i.i, align 8
  %38 = tail call noundef zeroext i1 @_ZN4llvm13isNoAliasCallEPKNS_5ValueE(ptr noundef %37) #18
  br i1 %38, label %39, label %_ZN4llvm6all_ofIRNS_8ArrayRefIPKNS_5ValueEEEPFbS4_EEEbOT_T0_.exit

39:                                               ; preds = %36, %._crit_edge.i.i.i.i.i
  br label %_ZN4llvm6all_ofIRNS_8ArrayRefIPKNS_5ValueEEEPFbS4_EEEbOT_T0_.exit

_ZN4llvm6all_ofIRNS_8ArrayRefIPKNS_5ValueEEEPFbS4_EEEbOT_T0_.exit.loopexit.split.loop.exit: ; preds = %9
  %40 = getelementptr inbounds i8, ptr %.02946.i.i.i.i.i, i64 8
  br label %_ZN4llvm6all_ofIRNS_8ArrayRefIPKNS_5ValueEEEPFbS4_EEEbOT_T0_.exit

_ZN4llvm6all_ofIRNS_8ArrayRefIPKNS_5ValueEEEPFbS4_EEEbOT_T0_.exit.loopexit.split.loop.exit13: ; preds = %13
  %41 = getelementptr inbounds i8, ptr %.02946.i.i.i.i.i, i64 16
  br label %_ZN4llvm6all_ofIRNS_8ArrayRefIPKNS_5ValueEEEPFbS4_EEEbOT_T0_.exit

_ZN4llvm6all_ofIRNS_8ArrayRefIPKNS_5ValueEEEPFbS4_EEEbOT_T0_.exit.loopexit.split.loop.exit15: ; preds = %17
  %42 = getelementptr inbounds i8, ptr %.02946.i.i.i.i.i, i64 24
  br label %_ZN4llvm6all_ofIRNS_8ArrayRefIPKNS_5ValueEEEPFbS4_EEEbOT_T0_.exit

_ZN4llvm6all_ofIRNS_8ArrayRefIPKNS_5ValueEEEPFbS4_EEEbOT_T0_.exit: ; preds = %.lr.ph.i.i.i.i.i, %_ZN4llvm6all_ofIRNS_8ArrayRefIPKNS_5ValueEEEPFbS4_EEEbOT_T0_.exit.loopexit.split.loop.exit, %_ZN4llvm6all_ofIRNS_8ArrayRefIPKNS_5ValueEEEPFbS4_EEEbOT_T0_.exit.loopexit.split.loop.exit13, %_ZN4llvm6all_ofIRNS_8ArrayRefIPKNS_5ValueEEEPFbS4_EEEbOT_T0_.exit.loopexit.split.loop.exit15, %26, %31, %36, %39
  %.028.i.i.i.i.i = phi ptr [ %3, %39 ], [ %.029.lcssa.i.i.i.i.i, %26 ], [ %.1.i.i.i.i.i, %31 ], [ %.2.i.i.i.i.i, %36 ], [ %40, %_ZN4llvm6all_ofIRNS_8ArrayRefIPKNS_5ValueEEEPFbS4_EEEbOT_T0_.exit.loopexit.split.loop.exit ], [ %41, %_ZN4llvm6all_ofIRNS_8ArrayRefIPKNS_5ValueEEEPFbS4_EEEbOT_T0_.exit.loopexit.split.loop.exit13 ], [ %42, %_ZN4llvm6all_ofIRNS_8ArrayRefIPKNS_5ValueEEEPFbS4_EEEbOT_T0_.exit.loopexit.split.loop.exit15 ], [ %.02946.i.i.i.i.i, %.lr.ph.i.i.i.i.i ]
  %43 = icmp eq ptr %3, %.028.i.i.i.i.i
  ret i1 %43
}